target datalayout = "e-m:e-p270:32:32-p271:32:32-p272:64:64-i64:64-i128:128-f80:128-n8:16:32:64-S128"
target triple = "x86_64-pc-linux-gnu"

%struct.pm_static_literals_t = type { %struct.pm_node_hash_t, %struct.pm_node_hash_t, %struct.pm_node_hash_t, %struct.pm_node_hash_t, %struct.pm_node_hash_t, %struct.pm_node_hash_t, ptr, ptr, ptr, ptr }
%struct.pm_node_hash_t = type { ptr, i32, i32 }

; Function Attrs: nounwind sspstrong uwtable
define internal void @pm_node_hash_free(ptr noundef %0) #0 {
  %2 = alloca ptr, align 8
  store ptr %0, ptr %2, align 8, !tbaa !7
  %3 = load ptr, ptr %2, align 8, !tbaa !7
  %4 = getelementptr inbounds nuw %struct.pm_node_hash_t, ptr %3, i32 0, i32 2
  %5 = load i32, ptr %4, align 4, !tbaa !36
  %6 = icmp ugt i32 %5, 0
  br i1 %6, label %7, label %11

7:                                                ; preds = %1
  %8 = load ptr, ptr %2, align 8, !tbaa !7
  %9 = getelementptr inbounds nuw %struct.pm_node_hash_t, ptr %8, i32 0, i32 0
  %10 = load ptr, ptr %9, align 8, !tbaa !38
  call void @free(ptr noundef %10) #9
  br label %11

11:                                               ; preds = %7, %1
  ret void
}

; Function Attrs: nounwind sspstrong uwtable
define hidden void @pm_static_literals_free(ptr noundef %0) #0 {
  %2 = alloca ptr, align 8
  store ptr %0, ptr %2, align 8, !tbaa !7
  %3 = load ptr, ptr %2, align 8, !tbaa !7
  %4 = getelementptr inbounds nuw %struct.pm_static_literals_t, ptr %3, i32 0, i32 0
  call void @pm_node_hash_free(ptr noundef %4)
  %5 = load ptr, ptr %2, align 8, !tbaa !7
  %6 = getelementptr inbounds nuw %struct.pm_static_literals_t, ptr %5, i32 0, i32 1
  call void @pm_node_hash_free(ptr noundef %6)
  %7 = load ptr, ptr %2, align 8, !tbaa !7
  %8 = getelementptr inbounds nuw %struct.pm_static_literals_t, ptr %7, i32 0, i32 2
  call void @pm_node_hash_free(ptr noundef %8)
  %9 = load ptr, ptr %2, align 8, !tbaa !7
  %10 = getelementptr inbounds nuw %struct.pm_static_literals_t, ptr %9, i32 0, i32 3
  call void @pm_node_hash_free(ptr noundef %10)
  %11 = load ptr, ptr %2, align 8, !tbaa !7
  %12 = getelementptr inbounds nuw %struct.pm_static_literals_t, ptr %11, i32 0, i32 4
  call void @pm_node_hash_free(ptr noundef %12)
  %13 = load ptr, ptr %2, align 8, !tbaa !7
  %14 = getelementptr inbounds nuw %struct.pm_static_literals_t, ptr %13, i32 0, i32 5
  call void @pm_node_hash_free(ptr noundef %14)
  ret void
}