; Function Attrs: mustprogress nounwind sspstrong willreturn uwtable
define hidden void @pm_static_literals_free(ptr noundef readonly captures(none) %0) local_unnamed_addr #1 {
  %2 = getelementptr inbounds nuw i8, ptr %0, i64 12
  %3 = load i32, ptr %2, align 4, !tbaa !23
  %.not.i = icmp eq i32 %3, 0
  br i1 %.not.i, label %pm_node_hash_free.exit, label %4

4:                                                ; preds = %1
  %5 = load ptr, ptr %0, align 8, !tbaa !24
  tail call void @free(ptr noundef %5) #9
  br label %pm_node_hash_free.exit

pm_node_hash_free.exit:                           ; preds = %1, %4
  %6 = getelementptr inbounds nuw i8, ptr %0, i64 28
  %7 = load i32, ptr %6, align 4, !tbaa !23
  %.not.i6 = icmp eq i32 %7, 0
  br i1 %.not.i6, label %pm_node_hash_free.exit7, label %8

8:                                                ; preds = %pm_node_hash_free.exit
  %9 = getelementptr inbounds nuw i8, ptr %0, i64 16
  %10 = load ptr, ptr %9, align 8, !tbaa !24
  tail call void @free(ptr noundef %10) #9
  br label %pm_node_hash_free.exit7

pm_node_hash_free.exit7:                          ; preds = %pm_node_hash_free.exit, %8
  %11 = getelementptr inbounds nuw i8, ptr %0, i64 44
  %12 = load i32, ptr %11, align 4, !tbaa !23
  %.not.i8 = icmp eq i32 %12, 0
  br i1 %.not.i8, label %pm_node_hash_free.exit9, label %13

13:                                               ; preds = %pm_node_hash_free.exit7
  %14 = getelementptr inbounds nuw i8, ptr %0, i64 32
  %15 = load ptr, ptr %14, align 8, !tbaa !24
  tail call void @free(ptr noundef %15) #9
  br label %pm_node_hash_free.exit9

pm_node_hash_free.exit9:                          ; preds = %pm_node_hash_free.exit7, %13
  %16 = getelementptr inbounds nuw i8, ptr %0, i64 60
  %17 = load i32, ptr %16, align 4, !tbaa !23
  %.not.i10 = icmp eq i32 %17, 0
  br i1 %.not.i10, label %pm_node_hash_free.exit11, label %18

18:                                               ; preds = %pm_node_hash_free.exit9
  %19 = getelementptr inbounds nuw i8, ptr %0, i64 48
  %20 = load ptr, ptr %19, align 8, !tbaa !24
  tail call void @free(ptr noundef %20) #9
  br label %pm_node_hash_free.exit11

pm_node_hash_free.exit11:                         ; preds = %pm_node_hash_free.exit9, %18
  %21 = getelementptr inbounds nuw i8, ptr %0, i64 76
  %22 = load i32, ptr %21, align 4, !tbaa !23
  %.not.i12 = icmp eq i32 %22, 0
  br i1 %.not.i12, label %pm_node_hash_free.exit13, label %23

23:                                               ; preds = %pm_node_hash_free.exit11
  %24 = getelementptr inbounds nuw i8, ptr %0, i64 64
  %25 = load ptr, ptr %24, align 8, !tbaa !24
  tail call void @free(ptr noundef %25) #9
  br label %pm_node_hash_free.exit13

pm_node_hash_free.exit13:                         ; preds = %pm_node_hash_free.exit11, %23
  %26 = getelementptr inbounds nuw i8, ptr %0, i64 92
  %27 = load i32, ptr %26, align 4, !tbaa !23
  %.not.i14 = icmp eq i32 %27, 0
  br i1 %.not.i14, label %pm_node_hash_free.exit15, label %28

28:                                               ; preds = %pm_node_hash_free.exit13
  %29 = getelementptr inbounds nuw i8, ptr %0, i64 80
  %30 = load ptr, ptr %29, align 8, !tbaa !24
  tail call void @free(ptr noundef %30) #9
  br label %pm_node_hash_free.exit15

pm_node_hash_free.exit15:                         ; preds = %pm_node_hash_free.exit13, %28
  ret void
}